(dp0
S'METTS MARK'
p1
(dp2
S'to_messages'
p3
I807
sS'deferral_payments'
p4
S'NaN'
p5
sS'expenses'
p6
I94299
sS'poi'
p7
I00
sS'deferred_income'
p8
g5
sS'bonus_salary_ratio'
p9
F1.6402943781644013
sS'long_term_incentive'
p10
g5
sS'email_address'
p11
S'mark.metts@enron.com'
p12
sS'restricted_stock_deferred'
p13
g5
sS'shared_receipt_with_poi'
p14
I702
sS'prop_from_this_person_to_poi'
p15
F0.034482758620689655
sS'loan_advances'
p16
g5
sS'from_messages'
p17
I29
sS'other'
p18
I1740
sS'director_fees'
p19
g5
sS'bonus'
p20
I600000
sS'total_stock_value'
p21
I585062
sS'from_poi_to_this_person'
p22
I38
sS'from_this_person_to_poi'
p23
I1
sS'restricted_stock'
p24
I585062
sS'salary'
p25
I365788
sS'total_payments'
p26
I1061827
sS'prop_from_poi_to_this_person'
p27
F0.04708798017348203
sS'exercised_stock_options'
p28
g5
sS'sum_prop_correspondences_with_poi'
p29
F0.08157073879417168
ssS'BAXTER JOHN C'
p30
(dp31
g3
g5
sg4
I1295738
sg6
I11200
sg7
I00
sg8
I-1386055
sg9
F4.492665723206865
sg10
I1586055
sg11
g5
sg13
g5
sg14
g5
sg15
S'NaN'
p32
sg16
g5
sg17
g5
sg18
I2660303
sg19
g5
sg20
I1200000
sg21
I10623258
sg22
g5
sg23
g5
sg24
I3942714
sg25
I267102
sg26
I5634343
sg27
g32
sg28
I6680544
sg29
g32
ssS'ELLIOTT STEVEN'
p33
(dp34
g3
g5
sg4
g5
sg6
I78552
sg7
I00
sg8
I-400729
sg9
F2.047490069673162
sg10
g5
sg11
S'steven.elliott@enron.com'
p35
sg13
g5
sg14
g5
sg15
g32
sg16
g5
sg17
g5
sg18
I12961
sg19
g5
sg20
I350000
sg21
I6678735
sg22
g5
sg23
g5
sg24
I1788391
sg25
I170941
sg26
I211725
sg27
g32
sg28
I4890344
sg29
g32
ssS'CORDES WILLIAM R'
p36
(dp37
g3
I764
sg4
g5
sg6
g5
sg7
I00
sg8
g5
sg9
g32
sg10
g5
sg11
S'bill.cordes@enron.com'
p38
sg13
g5
sg14
I58
sg15
F0.0
sg16
g5
sg17
I12
sg18
g5
sg19
g5
sg20
g5
sg21
I1038185
sg22
I10
sg23
I0
sg24
I386335
sg25
g5
sg26
g5
sg27
F0.013089005235602094
sg28
I651850
sg29
F0.013089005235602094
ssS'HANNON KEVIN P'
p39
(dp40
g3
I1045
sg4
g5
sg6
I34039
sg7
I01
sg8
I-3117011
sg9
F6.165405498719651
sg10
I1617011
sg11
S'kevin.hannon@enron.com'
p41
sg13
g5
sg14
I1035
sg15
F0.65625
sg16
g5
sg17
I32
sg18
I11350
sg19
g5
sg20
I1500000
sg21
I6391065
sg22
I32
sg23
I21
sg24
I853064
sg25
I243293
sg26
I288682
sg27
F0.03062200956937799
sg28
I5538001
sg29
F0.686872009569378
ssS'MORDAUNT KRISTINA M'
p42
(dp43
g3
g5
sg4
g5
sg6
I35018
sg7
I00
sg8
g5
sg9
F1.2168046335920448
sg10
g5
sg11
S'kristina.mordaunt@enron.com'
p44
sg13
g5
sg14
g5
sg15
g32
sg16
g5
sg17
g5
sg18
I1411
sg19
g5
sg20
I325000
sg21
I208510
sg22
g5
sg23
g5
sg24
I208510
sg25
I267093
sg26
I628522
sg27
g32
sg28
g5
sg29
g32
ssS'MEYER ROCKFORD G'
p45
(dp46
g3
I232
sg4
I1848227
sg6
g5
sg7
I00
sg8
g5
sg9
g32
sg10
g5
sg11
S'rockford.meyer@enron.com'
p47
sg13
g5
sg14
I22
sg15
F0.0
sg16
g5
sg17
I28
sg18
g5
sg19
g5
sg20
g5
sg21
I955873
sg22
I0
sg23
I0
sg24
I462384
sg25
g5
sg26
I1848227
sg27
F0.0
sg28
I493489
sg29
F0.0
ssS'MCMAHON JEFFREY'
p48
(dp49
g3
I2355
sg4
g5
sg6
I137108
sg7
I00
sg8
g5
sg9
F7.018528916339135
sg10
I694862
sg11
S'jeffrey.mcmahon@enron.com'
p50
sg13
g5
sg14
I2228
sg15
F0.5416666666666666
sg16
g5
sg17
I48
sg18
I297353
sg19
g5
sg20
I2600000
sg21
I1662855
sg22
I58
sg23
I26
sg24
I558801
sg25
I370448
sg26
I4099771
sg27
F0.024628450106157114
sg28
I1104054
sg29
F0.5662951167728237
ssS'HORTON STANLEY C'
p51
(dp52
g3
I2350
sg4
I3131860
sg6
g5
sg7
I00
sg8
g5
sg9
g32
sg10
g5
sg11
S'stanley.horton@enron.com'
p53
sg13
g5
sg14
I1074
sg15
F0.013979496738117428
sg16
g5
sg17
I1073
sg18
g5
sg19
g5
sg20
g5
sg21
I7256648
sg22
I44
sg23
I15
sg24
I2046079
sg25
g5
sg26
I3131860
sg27
F0.01872340425531915
sg28
I5210569
sg29
F0.032702900993436576
ssS'PIPER GREGORY F'
p54
(dp55
g3
I1238
sg4
I1130036
sg6
I43057
sg7
I00
sg8
I-33333
sg9
F2.0295193590777862
sg10
g5
sg11
S'greg.piper@enron.com'
p56
sg13
I-409554
sg14
I742
sg15
F0.21621621621621623
sg16
g5
sg17
I222
sg18
I778
sg19
g5
sg20
I400000
sg21
I880290
sg22
I61
sg23
I48
sg24
I409554
sg25
I197091
sg26
I1737629
sg27
F0.049273021001615507
sg28
I880290
sg29
F0.26548923721783174
ssS'HUMPHREY GENE E'
p57
(dp58
g3
I128
sg4
I2964506
sg6
I4994
sg7
I00
sg8
g5
sg9
g32
sg10
g5
sg11
S'gene.humphrey@enron.com'
p59
sg13
g5
sg14
I119
sg15
F1.0
sg16
g5
sg17
I17
sg18
g5
sg19
g5
sg20
g5
sg21
I2282768
sg22
I10
sg23
I17
sg24
g5
sg25
I130724
sg26
I3100224
sg27
F0.078125
sg28
I2282768
sg29
F1.078125
ssS'UMANOFF ADAM S'
p60
(dp61
g3
I111
sg4
g5
sg6
I53122
sg7
I00
sg8
g5
sg9
F2.7331256562100426
sg10
g5
sg11
S'adam.umanoff@enron.com'
p62
sg13
g5
sg14
I41
sg15
F0.0
sg16
g5
sg17
I18
sg18
g5
sg19
g5
sg20
I788750
sg21
g5
sg22
I12
sg23
I0
sg24
g5
sg25
I288589
sg26
I1130461
sg27
F0.10810810810810811
sg28
g5
sg29
F0.10810810810810811
ssS'BLACHMAN JEREMY M'
p63
(dp64
g3
I2475
sg4
g5
sg6
I84208
sg7
I00
sg8
g5
sg9
F3.419890080709406
sg10
I831809
sg11
S'jeremy.blachman@enron.com'
p65
sg13
g5
sg14
I2326
sg15
F0.14285714285714285
sg16
g5
sg17
I14
sg18
I272
sg19
g5
sg20
I850000
sg21
I954354
sg22
I25
sg23
I2
sg24
I189041
sg25
I248546
sg26
I2014835
sg27
F0.010101010101010102
sg28
I765313
sg29
F0.15295815295815296
ssS'SUNDE MARTIN'
p66
(dp67
g3
I2647
sg4
g5
sg6
g5
sg7
I00
sg8
g5
sg9
F2.7185944090164127
sg10
I476451
sg11
S'marty.sunde@enron.com'
p68
sg13
g5
sg14
I2565
sg15
F0.34210526315789475
sg16
g5
sg17
I38
sg18
I111122
sg19
g5
sg20
I700000
sg21
I698920
sg22
I37
sg23
I13
sg24
I698920
sg25
I257486
sg26
I1545059
sg27
F0.013978088401964487
sg28
g5
sg29
F0.3560833515598592
ssS'GIBBS DANA R'
p69
(dp70
g3
I169
sg4
I504610
sg6
g5
sg7
I00
sg8
g5
sg9
g32
sg10
I461912
sg11
S'dana.gibbs@enron.com'
p71
sg13
g5
sg14
I23
sg15
F0.0
sg16
g5
sg17
I12
sg18
g5
sg19
g5
sg20
g5
sg21
I2218275
sg22
I0
sg23
I0
sg24
g5
sg25
g5
sg26
I966522
sg27
F0.0
sg28
I2218275
sg29
F0.0
ssS'LOWRY CHARLES P'
p72
(dp73
g3
g5
sg4
g5
sg6
g5
sg7
I00
sg8
g5
sg9
g32
sg10
g5
sg11
g5
sg13
I-153686
sg14
g5
sg15
g32
sg16
g5
sg17
g5
sg18
g5
sg19
g5
sg20
g5
sg21
I372205
sg22
g5
sg23
g5
sg24
I153686
sg25
g5
sg26
g5
sg27
g32
sg28
I372205
sg29
g32
ssS'COLWELL WESLEY'
p74
(dp75
g3
I1758
sg4
I27610
sg6
I16514
sg7
I01
sg8
I-144062
sg9
F4.158839960906905
sg10
g5
sg11
S'wes.colwell@enron.com'
p76
sg13
g5
sg14
I1132
sg15
F0.275
sg16
g5
sg17
I40
sg18
I101740
sg19
g5
sg20
I1200000
sg21
I698242
sg22
I240
sg23
I11
sg24
I698242
sg25
I288542
sg26
I1490344
sg27
F0.13651877133105803
sg28
g5
sg29
F0.4115187713310581
ssS'MULLER MARK S'
p77
(dp78
g3
I136
sg4
I842924
sg6
g5
sg7
I00
sg8
I-719000
sg9
F4.3710809285765375
sg10
I1725545
sg11
S's..muller@enron.com'
p79
sg13
g5
sg14
I114
sg15
F0.0
sg16
g5
sg17
I16
sg18
I947
sg19
g5
sg20
I1100000
sg21
I1416848
sg22
I12
sg23
I0
sg24
I360528
sg25
I251654
sg26
I3202070
sg27
F0.08823529411764706
sg28
I1056320
sg29
F0.08823529411764706
ssS'JACKSON CHARLENE R'
p80
(dp81
g3
I258
sg4
g5
sg6
I10181
sg7
I00
sg8
g5
sg9
F0.8663769502145149
sg10
g5
sg11
S'charlene.jackson@enron.com'
p82
sg13
g5
sg14
I117
sg15
F0.3392857142857143
sg16
g5
sg17
I56
sg18
I2435
sg19
g5
sg20
I250000
sg21
I725735
sg22
I25
sg23
I19
sg24
I540672
sg25
I288558
sg26
I551174
sg27
F0.09689922480620156
sg28
I185063
sg29
F0.43618493909191586
ssS'WESTFAHL RICHARD K'
p83
(dp84
g3
g5
sg4
g5
sg6
I51870
sg7
I00
sg8
I-10800
sg9
g32
sg10
I256191
sg11
S'dick.westfahl@enron.com'
p85
sg13
g5
sg14
g5
sg15
g32
sg16
g5
sg17
g5
sg18
I401130
sg19
g5
sg20
g5
sg21
I384930
sg22
g5
sg23
g5
sg24
I384930
sg25
I63744
sg26
I762135
sg27
g32
sg28
g5
sg29
g32
ssS'WALTERS GARETH W'
p86
(dp87
g3
g5
sg4
I53625
sg6
I33785
sg7
I00
sg8
g5
sg9
g32
sg10
g5
sg11
g5
sg13
g5
sg14
g5
sg15
g32
sg16
g5
sg17
g5
sg18
g5
sg19
g5
sg20
g5
sg21
I1030329
sg22
g5
sg23
g5
sg24
g5
sg25
g5
sg26
I87410
sg27
g32
sg28
I1030329
sg29
g32
ssS'WALLS JR ROBERT H'
p88
(dp89
g3
I671
sg4
g5
sg6
I50936
sg7
I00
sg8
g5
sg9
F2.380345626184922
sg10
I540751
sg11
S'rob.walls@enron.com'
p90
sg13
g5
sg14
I215
sg15
F0.0
sg16
g5
sg17
I146
sg18
I2
sg19
g5
sg20
I850000
sg21
I5898997
sg22
I17
sg23
I0
sg24
I1552453
sg25
I357091
sg26
I1798780
sg27
F0.02533532041728763
sg28
I4346544
sg29
F0.02533532041728763
ssS'KITCHEN LOUISE'
p91
(dp92
g3
I8305
sg4
g5
sg6
I5774
sg7
I00
sg8
g5
sg9
F11.420487617981005
sg10
g5
sg11
S'louise.kitchen@enron.com'
p93
sg13
g5
sg14
I3669
sg15
F0.11226851851851852
sg16
g5
sg17
I1728
sg18
I93925
sg19
g5
sg20
I3100000
sg21
I547143
sg22
I251
sg23
I194
sg24
I466101
sg25
I271442
sg26
I3471141
sg27
F0.030222757375075255
sg28
I81042
sg29
F0.14249127589359378
ssS'CHAN RONNIE'
p94
(dp95
g3
g5
sg4
g5
sg6
g5
sg7
I00
sg8
I-98784
sg9
g32
sg10
g5
sg11
g5
sg13
I-32460
sg14
g5
sg15
g32
sg16
g5
sg17
g5
sg18
g5
sg19
I98784
sg20
g5
sg21
g5
sg22
g5
sg23
g5
sg24
I32460
sg25
g5
sg26
g5
sg27
g32
sg28
g5
sg29
g32
ssS'BELFER ROBERT'
p96
(dp97
g3
g5
sg4
I-102500
sg6
g5
sg7
I00
sg8
g5
sg9
g32
sg10
g5
sg11
g5
sg13
I44093
sg14
g5
sg15
g32
sg16
g5
sg17
g5
sg18
g5
sg19
I3285
sg20
g5
sg21
I-44093
sg22
g5
sg23
g5
sg24
g5
sg25
g5
sg26
I102500
sg27
g32
sg28
I3285
sg29
g32
ssS'SHANKMAN JEFFREY A'
p98
(dp99
g3
I3221
sg4
g5
sg6
I178979
sg7
I00
sg8
g5
sg9
F6.576567689322943
sg10
I554422
sg11
S'jeffrey.shankman@enron.com'
p100
sg13
g5
sg14
I1730
sg15
F0.030958597538232
sg16
g5
sg17
I2681
sg18
I1191
sg19
g5
sg20
I2000000
sg21
I2072035
sg22
I94
sg23
I83
sg24
I630137
sg25
I304110
sg26
I3038702
sg27
F0.029183483390251473
sg28
I1441898
sg29
F0.06014208092848347
ssS'WODRASKA JOHN'
p101
(dp102
g3
g5
sg4
g5
sg6
g5
sg7
I00
sg8
g5
sg9
g32
sg10
g5
sg11
S'john.wodraska@enron.com'
p103
sg13
g5
sg14
g5
sg15
g32
sg16
g5
sg17
g5
sg18
I189583
sg19
g5
sg20
g5
sg21
g5
sg22
g5
sg23
g5
sg24
g5
sg25
g5
sg26
I189583
sg27
g32
sg28
g5
sg29
g32
ssS'BERGSIEKER RICHARD P'
p104
(dp105
g3
I383
sg4
g5
sg6
I59175
sg7
I00
sg8
I-485813
sg9
F1.3303391832781686
sg10
I180250
sg11
S'rick.bergsieker@enron.com'
p106
sg13
g5
sg14
I233
sg15
F0.0
sg16
g5
sg17
I59
sg18
I427316
sg19
g5
sg20
I250000
sg21
I659249
sg22
I4
sg23
I0
sg24
I659249
sg25
I187922
sg26
I618850
sg27
F0.010443864229765013
sg28
g5
sg29
F0.010443864229765013
ssS'URQUHART JOHN A'
p107
(dp108
g3
g5
sg4
g5
sg6
I228656
sg7
I00
sg8
I-36666
sg9
g32
sg10
g5
sg11
g5
sg13
g5
sg14
g5
sg15
g32
sg16
g5
sg17
g5
sg18
g5
sg19
I36666
sg20
g5
sg21
g5
sg22
g5
sg23
g5
sg24
g5
sg25
g5
sg26
I228656
sg27
g32
sg28
g5
sg29
g32
ssS'BIBI PHILIPPE A'
p109
(dp110
g3
I1607
sg4
g5
sg6
I38559
sg7
I00
sg8
g5
sg9
F4.681100058513751
sg10
I369721
sg11
S'philippe.bibi@enron.com'
p111
sg13
g5
sg14
I1336
sg15
F0.2
sg16
g5
sg17
I40
sg18
I425688
sg19
g5
sg20
I1000000
sg21
I1843816
sg22
I23
sg23
I8
sg24
I378082
sg25
I213625
sg26
I2047593
sg27
F0.01431238332296204
sg28
I1465734
sg29
F0.21431238332296204
ssS'RIEKER PAULA H'
p112
(dp113
g3
I1328
sg4
I214678
sg6
I33271
sg7
I01
sg8
I-100000
sg9
F2.8089774920646384
sg10
g5
sg11
S'paula.rieker@enron.com'
p114
sg13
g5
sg14
I1258
sg15
F0.5853658536585366
sg16
g5
sg17
I82
sg18
I1950
sg19
g5
sg20
I700000
sg21
I1918887
sg22
I35
sg23
I48
sg24
I283649
sg25
I249201
sg26
I1099100
sg27
F0.02635542168674699
sg28
I1635238
sg29
F0.6117212753452835
ssS'WHALEY DAVID A'
p115
(dp116
g3
g5
sg4
g5
sg6
g5
sg7
I00
sg8
g5
sg9
g32
sg10
g5
sg11
g5
sg13
g5
sg14
g5
sg15
g32
sg16
g5
sg17
g5
sg18
g5
sg19
g5
sg20
g5
sg21
I98718
sg22
g5
sg23
g5
sg24
g5
sg25
g5
sg26
g5
sg27
g32
sg28
I98718
sg29
g32
ssS'BECK SALLY W'
p117
(dp118
g3
I7315
sg4
g5
sg6
I37172
sg7
I00
sg8
g5
sg9
F3.025980201443825
sg10
g5
sg11
S'sally.beck@enron.com'
p119
sg13
g5
sg14
I2639
sg15
F0.08887865530739121
sg16
g5
sg17
I4343
sg18
I566
sg19
g5
sg20
I700000
sg21
I126027
sg22
I144
sg23
I386
sg24
I126027
sg25
I231330
sg26
I969068
sg27
F0.01968557758031442
sg28
g5
sg29
F0.10856423288770563
ssS'HAUG DAVID L'
p120
(dp121
g3
I573
sg4
g5
sg6
I475
sg7
I00
sg8
g5
sg9
g32
sg10
g5
sg11
S'david.haug@enron.com'
p122
sg13
g5
sg14
I471
sg15
F0.3684210526315789
sg16
g5
sg17
I19
sg18
g5
sg19
g5
sg20
g5
sg21
I2217299
sg22
I4
sg23
I7
sg24
I2217299
sg25
g5
sg26
I475
sg27
F0.006980802792321117
sg28
g5
sg29
F0.37540185542390003
ssS'ECHOLS JOHN B'
p123
(dp124
g3
g5
sg4
g5
sg6
I21530
sg7
I00
sg8
g5
sg9
F1.0974237976350518
sg10
I2234774
sg11
S'john.echols@enron.com'
p125
sg13
g5
sg14
g5
sg15
g32
sg16
g5
sg17
g5
sg18
I53775
sg19
g5
sg20
I200000
sg21
I1008941
sg22
g5
sg23
g5
sg24
I407503
sg25
I182245
sg26
I2692324
sg27
g32
sg28
I601438
sg29
g32
ssS'MENDELSOHN JOHN'
p126
(dp127
g3
g5
sg4
g5
sg6
I148
sg7
I00
sg8
I-103750
sg9
g32
sg10
g5
sg11
g5
sg13
g5
sg14
g5
sg15
g32
sg16
g5
sg17
g5
sg18
g5
sg19
I103750
sg20
g5
sg21
g5
sg22
g5
sg23
g5
sg24
g5
sg25
g5
sg26
I148
sg27
g32
sg28
g5
sg29
g32
ssS'HICKERSON GARY J'
p128
(dp129
g3
I1320
sg4
g5
sg6
I98849
sg7
I00
sg8
g5
sg9
F8.02689481934765
sg10
I69223
sg11
S'gary.hickerson@enron.com'
p130
sg13
g5
sg14
I900
sg15
F0.037037037037037035
sg16
g5
sg17
I27
sg18
I1936
sg19
g5
sg20
I1700000
sg21
I441096
sg22
I40
sg23
I1
sg24
I441096
sg25
I211788
sg26
I2081796
sg27
F0.030303030303030304
sg28
g5
sg29
F0.06734006734006734
ssS'CLINE KENNETH W'
p131
(dp132
g3
g5
sg4
g5
sg6
g5
sg7
I00
sg8
g5
sg9
g32
sg10
g5
sg11
g5
sg13
I-472568
sg14
g5
sg15
g32
sg16
g5
sg17
g5
sg18
g5
sg19
g5
sg20
g5
sg21
I189518
sg22
g5
sg23
g5
sg24
I662086
sg25
g5
sg26
g5
sg27
g32
sg28
g5
sg29
g32
ssS'LEWIS RICHARD'
p133
(dp134
g3
I952
sg4
g5
sg6
g5
sg7
I00
sg8
g5
sg9
g32
sg10
g5
sg11
S'richard.lewis@enron.com'
p135
sg13
g5
sg14
I739
sg15
F0.0
sg16
g5
sg17
I26
sg18
g5
sg19
g5
sg20
g5
sg21
I850477
sg22
I10
sg23
I0
sg24
g5
sg25
g5
sg26
g5
sg27
F0.01050420168067227
sg28
I850477
sg29
F0.01050420168067227
ssS'HAYES ROBERT E'
p136
(dp137
g3
I504
sg4
I7961
sg6
g5
sg7
I00
sg8
g5
sg9
g32
sg10
g5
sg11
S'robert.hayes@enron.com'
p138
sg13
g5
sg14
I50
sg15
F0.0
sg16
g5
sg17
I12
sg18
g5
sg19
g5
sg20
g5
sg21
I151418
sg22
I16
sg23
I0
sg24
I151418
sg25
g5
sg26
I7961
sg27
F0.031746031746031744
sg28
g5
sg29
F0.031746031746031744
ssS'MCCARTY DANNY J'
p139
(dp140
g3
I1433
sg4
g5
sg6
g5
sg7
I00
sg8
g5
sg9
g32
sg10
g5
sg11
S'danny.mccarty@enron.com'
p141
sg13
g5
sg14
I508
sg15
F0.009302325581395349
sg16
g5
sg17
I215
sg18
g5
sg19
g5
sg20
g5
sg21
I758931
sg22
I25
sg23
I2
sg24
I94556
sg25
g5
sg26
g5
sg27
F0.017445917655268667
sg28
I664375
sg29
F0.026748243236664016
ssS'KOPPER MICHAEL J'
p142
(dp143
g3
g5
sg4
g5
sg6
I118134
sg7
I01
sg8
g5
sg9
F3.5665723011078665
sg10
I602671
sg11
S'michael.kopper@enron.com'
p144
sg13
g5
sg14
g5
sg15
g32
sg16
g5
sg17
g5
sg18
I907502
sg19
g5
sg20
I800000
sg21
I985032
sg22
g5
sg23
g5
sg24
I985032
sg25
I224305
sg26
I2652612
sg27
g32
sg28
g5
sg29
g32
ssS'LEFF DANIEL P'
p145
(dp146
g3
I2822
sg4
g5
sg6
g5
sg7
I00
sg8
g5
sg9
F3.653021414011529
sg10
I1387399
sg11
S'dan.leff@enron.com'
p147
sg13
g5
sg14
I2672
sg15
F0.2222222222222222
sg16
g5
sg17
I63
sg18
I3083
sg19
g5
sg20
I1000000
sg21
I360528
sg22
I67
sg23
I14
sg24
I360528
sg25
I273746
sg26
I2664228
sg27
F0.02374202693125443
sg28
g5
sg29
F0.24596424915347664
ssS'LAVORATO JOHN J'
p148
(dp149
g3
I7259
sg4
g5
sg6
I49537
sg7
I00
sg8
g5
sg9
F23.57878852184575
sg10
I2035380
sg11
S'john.lavorato@enron.com'
p150
sg13
g5
sg14
I3962
sg15
F0.15899419729206962
sg16
g5
sg17
I2585
sg18
I1552
sg19
g5
sg20
I8000000
sg21
I5167144
sg22
I528
sg23
I411
sg24
I1008149
sg25
I339288
sg26
I10425757
sg27
F0.07273729163796666
sg28
I4158995
sg29
F0.23173148893003628
ssS'BERBERIAN DAVID'
p151
(dp152
g3
g5
sg4
g5
sg6
I11892
sg7
I00
sg8
g5
sg9
g32
sg10
g5
sg11
S'david.berberian@enron.com'
p153
sg13
g5
sg14
g5
sg15
g32
sg16
g5
sg17
g5
sg18
g5
sg19
g5
sg20
g5
sg21
I2493616
sg22
g5
sg23
g5
sg24
I869220
sg25
I216582
sg26
I228474
sg27
g32
sg28
I1624396
sg29
g32
ssS'DETMERING TIMOTHY J'
p154
(dp155
g3
g5
sg4
I875307
sg6
I52255
sg7
I00
sg8
I-775241
sg9
F2.019002375296912
sg10
I415657
sg11
S'timothy.detmering@enron.com'
p156
sg13
I-315068
sg14
g5
sg15
g32
sg16
g5
sg17
g5
sg18
I1105
sg19
g5
sg20
I425000
sg21
I2027865
sg22
g5
sg23
g5
sg24
I315068
sg25
I210500
sg26
I1204583
sg27
g32
sg28
I2027865
sg29
g32
ssS'WAKEHAM JOHN'
p157
(dp158
g3
g5
sg4
g5
sg6
I103773
sg7
I00
sg8
g5
sg9
g32
sg10
g5
sg11
g5
sg13
g5
sg14
g5
sg15
g32
sg16
g5
sg17
g5
sg18
g5
sg19
I109298
sg20
g5
sg21
g5
sg22
g5
sg23
g5
sg24
g5
sg25
g5
sg26
I213071
sg27
g32
sg28
g5
sg29
g32
ssS'POWERS WILLIAM'
p159
(dp160
g3
I653
sg4
g5
sg6
g5
sg7
I00
sg8
I-17500
sg9
g32
sg10
g5
sg11
S'ken.powers@enron.com'
p161
sg13
g5
sg14
I12
sg15
F0.0
sg16
g5
sg17
I26
sg18
g5
sg19
I17500
sg20
g5
sg21
g5
sg22
I0
sg23
I0
sg24
g5
sg25
g5
sg26
g5
sg27
F0.0
sg28
g5
sg29
F0.0
ssS'GOLD JOSEPH'
p162
(dp163
g3
g5
sg4
g5
sg6
g5
sg7
I00
sg8
g5
sg9
F2.748460861917326
sg10
I304805
sg11
S'joe.gold@enron.com'
p164
sg13
g5
sg14
g5
sg15
g32
sg16
g5
sg17
g5
sg18
I819288
sg19
g5
sg20
I750000
sg21
I877611
sg22
g5
sg23
g5
sg24
I441096
sg25
I272880
sg26
I2146973
sg27
g32
sg28
I436515
sg29
g32
ssS'BANNANTINE JAMES M'
p165
(dp166
g3
I566
sg4
g5
sg6
I56301
sg7
I00
sg8
I-5104
sg9
g32
sg10
g5
sg11
S'james.bannantine@enron.com'
p167
sg13
I-560222
sg14
I465
sg15
F0.0
sg16
g5
sg17
I29
sg18
I864523
sg19
g5
sg20
g5
sg21
I5243487
sg22
I39
sg23
I0
sg24
I1757552
sg25
I477
sg26
I916197
sg27
F0.06890459363957598
sg28
I4046157
sg29
F0.06890459363957598
ssS'DUNCAN JOHN H'
p168
(dp169
g3
g5
sg4
g5
sg6
g5
sg7
I00
sg8
I-25000
sg9
g32
sg10
g5
sg11
g5
sg13
g5
sg14
g5
sg15
g32
sg16
g5
sg17
g5
sg18
g5
sg19
I102492
sg20
g5
sg21
I371750
sg22
g5
sg23
g5
sg24
g5
sg25
g5
sg26
I77492
sg27
g32
sg28
I371750
sg29
g32
ssS'SHAPIRO RICHARD S'
p170
(dp171
g3
I15149
sg4
g5
sg6
I137767
sg7
I00
sg8
g5
sg9
F2.4156743819590005
sg10
g5
sg11
S'richard.shapiro@enron.com'
p172
sg13
g5
sg14
I4527
sg15
F0.053497942386831275
sg16
g5
sg17
I1215
sg18
I705
sg19
g5
sg20
I650000
sg21
I987001
sg22
I74
sg23
I65
sg24
I379164
sg25
I269076
sg26
I1057548
sg27
F0.0048848108786058485
sg28
I607837
sg29
F0.058382753265437126
ssS'SHERRIFF JOHN R'
p173
(dp174
g3
I3187
sg4
g5
sg6
g5
sg7
I00
sg8
g5
sg9
F3.4982974952189934
sg10
I554422
sg11
S'john.sherriff@enron.com'
p175
sg13
g5
sg14
I2103
sg15
F0.25
sg16
g5
sg17
I92
sg18
I1852186
sg19
g5
sg20
I1500000
sg21
I3128982
sg22
I28
sg23
I23
sg24
I1293424
sg25
I428780
sg26
I4335388
sg27
F0.008785691873235017
sg28
I1835558
sg29
F0.258785691873235
ssS'SHELBY REX'
p176
(dp177
g3
I225
sg4
g5
sg6
I22884
sg7
I01
sg8
I-4167
sg9
F0.9440909348388437
sg10
g5
sg11
S'rex.shelby@enron.com'
p178
sg13
g5
sg14
I91
sg15
F0.358974358974359
sg16
g5
sg17
I39
sg18
I1573324
sg19
g5
sg20
I200000
sg21
I2493616
sg22
I13
sg23
I14
sg24
I869220
sg25
I211844
sg26
I2003885
sg27
F0.057777777777777775
sg28
I1624396
sg29
F0.41675213675213674
ssS'LEMAISTRE CHARLES'
p179
(dp180
g3
g5
sg4
g5
sg6
g5
sg7
I00
sg8
I-25000
sg9
g32
sg10
g5
sg11
g5
sg13
g5
sg14
g5
sg15
g32
sg16
g5
sg17
g5
sg18
g5
sg19
I112492
sg20
g5
sg21
I412878
sg22
g5
sg23
g5
sg24
g5
sg25
g5
sg26
I87492
sg27
g32
sg28
I412878
sg29
g32
ssS'DEFFNER JOSEPH M'
p181
(dp182
g3
I714
sg4
g5
sg6
I41626
sg7
I00
sg8
g5
sg9
F2.910911551952494
sg10
I335349
sg11
S'joseph.deffner@enron.com'
p183
sg13
g5
sg14
I552
sg15
F0.05405405405405406
sg16
g5
sg17
I74
sg18
I25553
sg19
g5
sg20
I600000
sg21
I159211
sg22
I115
sg23
I4
sg24
I141833
sg25
I206121
sg26
I1208649
sg27
F0.16106442577030813
sg28
I17378
sg29
F0.2151184798243622
ssS'KISHKILL JOSEPH G'
p184
(dp185
g3
g5
sg4
g5
sg6
I116335
sg7
I00
sg8
I-51042
sg9
g32
sg10
g5
sg11
S'joe.kishkill@enron.com'
p186
sg13
g5
sg14
g5
sg15
g32
sg16
g5
sg17
g5
sg18
I465357
sg19
g5
sg20
g5
sg21
I1034346
sg22
g5
sg23
g5
sg24
I1034346
sg25
I174246
sg26
I704896
sg27
g32
sg28
g5
sg29
g32
ssS'WHALLEY LAWRENCE G'
p187
(dp188
g3
I6019
sg4
g5
sg6
I57838
sg7
I00
sg8
g5
sg9
F5.878157550297435
sg10
I808346
sg11
S'greg.whalley@enron.com'
p189
sg13
g5
sg14
I3920
sg15
F0.04316546762589928
sg16
g5
sg17
I556
sg18
I301026
sg19
g5
sg20
I3000000
sg21
I6079137
sg22
I186
sg23
I24
sg24
I2796177
sg25
I510364
sg26
I4677574
sg27
F0.03090214321315833
sg28
I3282960
sg29
F0.07406761083905761
ssS'MCCONNELL MICHAEL S'
p190
(dp191
g3
I3329
sg4
g5
sg6
I81364
sg7
I00
sg8
g5
sg9
F3.013384907872605
sg10
I554422
sg11
S'mike.mcconnell@enron.com'
p192
sg13
g5
sg14
I2189
sg15
F0.07075127644055434
sg16
g5
sg17
I2742
sg18
I540
sg19
g5
sg20
I1100000
sg21
I3101279
sg22
I92
sg23
I194
sg24
I1478269
sg25
I365038
sg26
I2101364
sg27
F0.02763592670471613
sg28
I1623010
sg29
F0.09838720314527047
ssS'PIRO JIM'
p193
(dp194
g3
I58
sg4
g5
sg6
g5
sg7
I00
sg8
g5
sg9
g32
sg10
g5
sg11
S'jim.piro@enron.com'
p195
sg13
g5
sg14
I3
sg15
F0.0625
sg16
g5
sg17
I16
sg18
g5
sg19
g5
sg20
g5
sg21
I47304
sg22
I0
sg23
I1
sg24
I47304
sg25
g5
sg26
g5
sg27
F0.0
sg28
g5
sg29
F0.0625
ssS'DELAINEY DAVID W'
p196
(dp197
g3
I3093
sg4
g5
sg6
I86174
sg7
I01
sg8
g5
sg9
F8.215509238340138
sg10
I1294981
sg11
S'david.delainey@enron.com'
p198
sg13
g5
sg14
I2097
sg15
F0.198435972629521
sg16
g5
sg17
I3069
sg18
I1661
sg19
g5
sg20
I3000000
sg21
I3614261
sg22
I66
sg23
I609
sg24
I1323148
sg25
I365163
sg26
I4747979
sg27
F0.02133850630455868
sg28
I2291113
sg29
F0.2197744789340797
ssS'SULLIVAN-SHAKLOVITZ COLLEEN'
p199
(dp200
g3
g5
sg4
I181993
sg6
g5
sg7
I00
sg8
g5
sg9
F0.6143298582741017
sg10
I554422
sg11
g5
sg13
g5
sg14
g5
sg15
g32
sg16
g5
sg17
g5
sg18
I162
sg19
g5
sg20
I100000
sg21
I1362375
sg22
g5
sg23
g5
sg24
g5
sg25
I162779
sg26
I999356
sg27
g32
sg28
I1362375
sg29
g32
ssS'WROBEL BRUCE'
p201
(dp202
g3
g5
sg4
g5
sg6
g5
sg7
I00
sg8
g5
sg9
g32
sg10
g5
sg11
g5
sg13
g5
sg14
g5
sg15
g32
sg16
g5
sg17
g5
sg18
g5
sg19
g5
sg20
g5
sg21
I139130
sg22
g5
sg23
g5
sg24
g5
sg25
g5
sg26
g5
sg27
g32
sg28
I139130
sg29
g32
ssS'LINDHOLM TOD A'
p203
(dp204
g3
g5
sg4
I204075
sg6
I57727
sg7
I00
sg8
g5
sg9
F0.8458197473536415
sg10
I175000
sg11
S'tod.lindholm@enron.com'
p205
sg13
g5
sg14
g5
sg15
g32
sg16
g5
sg17
g5
sg18
I2630
sg19
g5
sg20
I200000
sg21
I3064208
sg22
g5
sg23
g5
sg24
I514847
sg25
I236457
sg26
I875889
sg27
g32
sg28
I2549361
sg29
g32
ssS'MEYER JEROME J'
p206
(dp207
g3
g5
sg4
g5
sg6
I2151
sg7
I00
sg8
I-38346
sg9
g32
sg10
g5
sg11
g5
sg13
g5
sg14
g5
sg15
g32
sg16
g5
sg17
g5
sg18
g5
sg19
I38346
sg20
g5
sg21
g5
sg22
g5
sg23
g5
sg24
g5
sg25
g5
sg26
I2151
sg27
g32
sg28
g5
sg29
g32
ssS'LAY KENNETH L'
p208
(dp209
g3
I4273
sg4
I202911
sg6
I99832
sg7
I01
sg8
I-300000
sg9
F6.527896031132468
sg10
I3600000
sg11
S'kenneth.lay@enron.com'
p210
sg13
g5
sg14
I2411
sg15
F0.4444444444444444
sg16
I81525000
sg17
I36
sg18
I10359729
sg19
g5
sg20
I7000000
sg21
I49110078
sg22
I123
sg23
I16
sg24
I14761694
sg25
I1072321
sg26
I103559793
sg27
F0.028785396676807865
sg28
I34348384
sg29
F0.47322984112125227
ssS'BUTTS ROBERT H'
p211
(dp212
g3
g5
sg4
g5
sg6
I9410
sg7
I00
sg8
I-75000
sg9
F2.8678933602532926
sg10
I175000
sg11
S'bob.butts@enron.com'
p213
sg13
g5
sg14
g5
sg15
g32
sg16
g5
sg17
g5
sg18
I150656
sg19
g5
sg20
I750000
sg21
I417619
sg22
g5
sg23
g5
sg24
I417619
sg25
I261516
sg26
I1271582
sg27
g32
sg28
g5
sg29
g32
ssS'OLSON CINDY K'
p214
(dp215
g3
I1184
sg4
I77716
sg6
I63791
sg7
I00
sg8
g5
sg9
F2.279094925823057
sg10
I100000
sg11
S'cindy.olson@enron.com'
p216
sg13
g5
sg14
I856
sg15
F0.28846153846153844
sg16
g5
sg17
I52
sg18
I972
sg19
g5
sg20
I750000
sg21
I2606763
sg22
I20
sg23
I15
sg24
I969729
sg25
I329078
sg26
I1321557
sg27
F0.016891891891891893
sg28
I1637034
sg29
F0.3053534303534303
ssS'MCDONALD REBECCA'
p217
(dp218
g3
I894
sg4
g5
sg6
g5
sg7
I00
sg8
g5
sg9
g32
sg10
g5
sg11
S'rebecca.mcdonald@enron.com'
p219
sg13
g5
sg14
I720
sg15
F0.07692307692307693
sg16
g5
sg17
I13
sg18
g5
sg19
g5
sg20
g5
sg21
I1691366
sg22
I54
sg23
I1
sg24
I934065
sg25
g5
sg26
g5
sg27
F0.06040268456375839
sg28
I757301
sg29
F0.1373257614868353
ssS'CUMBERLAND MICHAEL S'
p220
(dp221
g3
g5
sg4
g5
sg6
I22344
sg7
I00
sg8
g5
sg9
F1.7577163748857485
sg10
I275000
sg11
g5
sg13
g5
sg14
g5
sg15
g32
sg16
g5
sg17
g5
sg18
I713
sg19
g5
sg20
I325000
sg21
I207940
sg22
g5
sg23
g5
sg24
I207940
sg25
I184899
sg26
I807956
sg27
g32
sg28
g5
sg29
g32
ssS'GAHN ROBERT S'
p222
(dp223
g3
g5
sg4
I73122
sg6
I50080
sg7
I00
sg8
I-1042
sg9
F2.6554622724053165
sg10
g5
sg11
g5
sg13
g5
sg14
g5
sg15
g32
sg16
g5
sg17
g5
sg18
I76547
sg19
g5
sg20
I509870
sg21
I318607
sg22
g5
sg23
g5
sg24
I235370
sg25
I192008
sg26
I900585
sg27
g32
sg28
I83237
sg29
g32
ssS'MCCLELLAN GEORGE'
p224
(dp225
g3
I1744
sg4
g5
sg6
I228763
sg7
I00
sg8
I-125000
sg9
F3.4166878627858153
sg10
g5
sg11
S'george.mcclellan@enron.com'
p226
sg13
g5
sg14
I1469
sg15
F0.0
sg16
g5
sg17
I49
sg18
I51587
sg19
g5
sg20
I900000
sg21
I947861
sg22
I52
sg23
I0
sg24
I441096
sg25
I263413
sg26
I1318763
sg27
F0.02981651376146789
sg28
I506765
sg29
F0.02981651376146789
ssS'HERMANN ROBERT J'
p227
(dp228
g3
g5
sg4
g5
sg6
I48357
sg7
I00
sg8
I-280000
sg9
F2.665011821231007
sg10
I150000
sg11
S'robert.hermann@enron.com'
p229
sg13
g5
sg14
g5
sg15
g32
sg16
g5
sg17
g5
sg18
I416441
sg19
g5
sg20
I700000
sg21
I668132
sg22
g5
sg23
g5
sg24
I480632
sg25
I262663
sg26
I1297461
sg27
g32
sg28
I187500
sg29
g32
ssS'SCRIMSHAW MATTHEW'
p230
(dp231
g3
g5
sg4
g5
sg6
g5
sg7
I00
sg8
g5
sg9
g32
sg10
g5
sg11
S'matthew.scrimshaw@enron.com'
p232
sg13
g5
sg14
g5
sg15
g32
sg16
g5
sg17
g5
sg18
g5
sg19
g5
sg20
g5
sg21
I759557
sg22
g5
sg23
g5
sg24
g5
sg25
g5
sg26
g5
sg27
g32
sg28
I759557
sg29
g32
ssS'GATHMANN WILLIAM D'
p233
(dp234
g3
g5
sg4
g5
sg6
g5
sg7
I00
sg8
g5
sg9
g32
sg10
g5
sg11
g5
sg13
I-72419
sg14
g5
sg15
g32
sg16
g5
sg17
g5
sg18
g5
sg19
g5
sg20
g5
sg21
I1945360
sg22
g5
sg23
g5
sg24
I264013
sg25
g5
sg26
g5
sg27
g32
sg28
I1753766
sg29
g32
ssS'HAEDICKE MARK E'
p235
(dp236
g3
I4009
sg4
I2157527
sg6
I76169
sg7
I00
sg8
I-934484
sg9
F3.073838957567658
sg10
I983346
sg11
S'mark.haedicke@enron.com'
p237
sg13
I-329825
sg14
I1847
sg15
F0.03142709943328181
sg16
g5
sg17
I1941
sg18
I52382
sg19
g5
sg20
I1150000
sg21
I803094
sg22
I180
sg23
I61
sg24
I524169
sg25
I374125
sg26
I3859065
sg27
F0.04489897730107259
sg28
I608750
sg29
F0.0763260767343544
ssS'BOWEN JR RAYMOND M'
p238
(dp239
g3
I1858
sg4
g5
sg6
I65907
sg7
I01
sg8
I-833
sg9
F4.845639462887786
sg10
I974293
sg11
S'raymond.bowen@enron.com'
p240
sg13
g5
sg14
I1593
sg15
F0.5555555555555556
sg16
g5
sg17
I27
sg18
I1621
sg19
g5
sg20
I1350000
sg21
I252055
sg22
I140
sg23
I15
sg24
I252055
sg25
I278601
sg26
I2669589
sg27
F0.07534983853606028
sg28
g5
sg29
F0.6309053940916158
ssS'GILLIS JOHN'
p241
(dp242
g3
g5
sg4
g5
sg6
g5
sg7
I00
sg8
g5
sg9
g32
sg10
g5
sg11
g5
sg13
g5
sg14
g5
sg15
g32
sg16
g5
sg17
g5
sg18
g5
sg19
g5
sg20
g5
sg21
I85641
sg22
g5
sg23
g5
sg24
I75838
sg25
g5
sg26
g5
sg27
g32
sg28
I9803
sg29
g32
ssS'FITZGERALD JAY L'
p243
(dp244
g3
I936
sg4
g5
sg6
I23870
sg7
I00
sg8
g5
sg9
F1.7574074724965731
sg10
I556416
sg11
S'jay.fitzgerald@enron.com'
p245
sg13
g5
sg14
I723
sg15
F0.5
sg16
g5
sg17
I16
sg18
I285414
sg19
g5
sg20
I350000
sg21
I1621236
sg22
I1
sg23
I8
sg24
I956775
sg25
I199157
sg26
I1414857
sg27
F0.0010683760683760685
sg28
I664461
sg29
F0.5010683760683761
ssS'MORAN MICHAEL P'
p246
(dp247
g3
I672
sg4
g5
sg6
g5
sg7
I00
sg8
g5
sg9
g32
sg10
g5
sg11
S'michael.moran@enron.com'
p248
sg13
g5
sg14
I127
sg15
F0.0
sg16
g5
sg17
I19
sg18
g5
sg19
g5
sg20
g5
sg21
I221141
sg22
I0
sg23
I0
sg24
I161602
sg25
g5
sg26
g5
sg27
F0.0
sg28
I59539
sg29
F0.0
ssS'REDMOND BRIAN L'
p249
(dp250
g3
I1671
sg4
g5
sg6
I14689
sg7
I00
sg8
g5
sg9
g32
sg10
g5
sg11
S'brian.redmond@enron.com'
p251
sg13
g5
sg14
I1063
sg15
F0.22171945701357465
sg16
g5
sg17
I221
sg18
g5
sg19
g5
sg20
g5
sg21
I7890324
sg22
I204
sg23
I49
sg24
I381285
sg25
I96840
sg26
I111529
sg27
F0.12208258527827648
sg28
I7509039
sg29
F0.34380204229185113
ssS'BAZELIDES PHILIP J'
p252
(dp253
g3
g5
sg4
I684694
sg6
g5
sg7
I00
sg8
g5
sg9
g32
sg10
I93750
sg11
g5
sg13
g5
sg14
g5
sg15
g32
sg16
g5
sg17
g5
sg18
I874
sg19
g5
sg20
g5
sg21
I1599641
sg22
g5
sg23
g5
sg24
g5
sg25
I80818
sg26
I860136
sg27
g32
sg28
I1599641
sg29
g32
ssS'BELDEN TIMOTHY N'
p254
(dp255
g3
I7991
sg4
I2144013
sg6
I17355
sg7
I01
sg8
I-2334434
sg9
F24.532820246823583
sg10
g5
sg11
S'tim.belden@enron.com'
p256
sg13
g5
sg14
I5521
sg15
F0.2231404958677686
sg16
g5
sg17
I484
sg18
I210698
sg19
g5
sg20
I5249999
sg21
I1110705
sg22
I228
sg23
I108
sg24
I157569
sg25
I213999
sg26
I5501630
sg27
F0.028532098610937303
sg28
I953136
sg29
F0.2516725944787059
ssS'DURAN WILLIAM D'
p257
(dp258
g3
I904
sg4
g5
sg6
I25785
sg7
I00
sg8
g5
sg9
F3.559698517266911
sg10
I1105218
sg11
S'w.duran@enron.com'
p259
sg13
g5
sg14
I599
sg15
F0.25
sg16
g5
sg17
I12
sg18
I1568
sg19
g5
sg20
I750000
sg21
I1640910
sg22
I106
sg23
I3
sg24
I189041
sg25
I210692
sg26
I2093263
sg27
F0.1172566371681416
sg28
I1451869
sg29
F0.3672566371681416
ssS'THORN TERENCE H'
p260
(dp261
g3
I266
sg4
I16586
sg6
I46145
sg7
I00
sg8
g5
sg9
g32
sg10
I200000
sg11
S'terence.thorn@enron.com'
p262
sg13
g5
sg14
I73
sg15
F0.0
sg16
g5
sg17
I41
sg18
I426629
sg19
g5
sg20
g5
sg21
I4817796
sg22
I0
sg23
I0
sg24
I365320
sg25
I222093
sg26
I911453
sg27
F0.0
sg28
I4452476
sg29
F0.0
ssS'FASTOW ANDREW S'
p263
(dp264
g3
g5
sg4
g5
sg6
I55921
sg7
I01
sg8
I-1386055
sg9
F2.949865894558178
sg10
I1736055
sg11
S'andrew.fastow@enron.com'
p265
sg13
g5
sg14
g5
sg15
g32
sg16
g5
sg17
g5
sg18
I277464
sg19
g5
sg20
I1300000
sg21
I1794412
sg22
g5
sg23
g5
sg24
I1794412
sg25
I440698
sg26
I2424083
sg27
g32
sg28
g5
sg29
g32
ssS'FOY JOE'
p266
(dp267
g3
I57
sg4
I181755
sg6
g5
sg7
I00
sg8
g5
sg9
g32
sg10
g5
sg11
S'tracy.foy@enron.com'
p268
sg13
g5
sg14
I2
sg15
F0.0
sg16
g5
sg17
I13
sg18
g5
sg19
g5
sg20
g5
sg21
I343434
sg22
I0
sg23
I0
sg24
g5
sg25
g5
sg26
I181755
sg27
F0.0
sg28
I343434
sg29
F0.0
ssS'CALGER CHRISTOPHER F'
p269
(dp270
g3
I2598
sg4
g5
sg6
I35818
sg7
I01
sg8
I-262500
sg9
F5.204234998272194
sg10
I375304
sg11
S'christopher.calger@enron.com'
p271
sg13
g5
sg14
I2188
sg15
F0.1736111111111111
sg16
g5
sg17
I144
sg18
I486
sg19
g5
sg20
I1250000
sg21
I126027
sg22
I199
sg23
I25
sg24
I126027
sg25
I240189
sg26
I1639297
sg27
F0.07659738260200154
sg28
g5
sg29
F0.25020849371311266
ssS'RICE KENNETH D'
p272
(dp273
g3
I905
sg4
g5
sg6
I46950
sg7
I01
sg8
I-3504386
sg9
F4.160366682832663
sg10
I1617011
sg11
S'ken.rice@enron.com'
p274
sg13
g5
sg14
I864
sg15
F0.2222222222222222
sg16
g5
sg17
I18
sg18
I174839
sg19
g5
sg20
I1750000
sg21
I22542539
sg22
I42
sg23
I4
sg24
I2748364
sg25
I420636
sg26
I505050
sg27
F0.04640883977900553
sg28
I19794175
sg29
F0.2686310620012277
ssS'KAMINSKI WINCENTY J'
p275
(dp276
g3
I4607
sg4
g5
sg6
I83585
sg7
I00
sg8
g5
sg9
F1.4540114357999425
sg10
I323466
sg11
S'vince.kaminski@enron.com'
p277
sg13
g5
sg14
I583
sg15
F0.011901447661469933
sg16
g5
sg17
I14368
sg18
I4669
sg19
g5
sg20
I400000
sg21
I976037
sg22
I41
sg23
I171
sg24
I126027
sg25
I275101
sg26
I1086821
sg27
F0.008899500759713479
sg28
I850010
sg29
F0.020800948421183414
ssS'LOCKHART EUGENE E'
p278
(dp279
g3
g5
sg4
g5
sg6
g5
sg7
I00
sg8
g5
sg9
g32
sg10
g5
sg11
g5
sg13
g5
sg14
g5
sg15
g32
sg16
g5
sg17
g5
sg18
g5
sg19
g5
sg20
g5
sg21
g5
sg22
g5
sg23
g5
sg24
g5
sg25
g5
sg26
g5
sg27
g32
sg28
g5
sg29
g32
ssS'COX DAVID'
p280
(dp281
g3
I102
sg4
g5
sg6
I27861
sg7
I00
sg8
I-41250
sg9
F2.5454360331924857
sg10
g5
sg11
S'chip.cox@enron.com'
p282
sg13
g5
sg14
I71
sg15
F0.12121212121212122
sg16
g5
sg17
I33
sg18
I494
sg19
g5
sg20
I800000
sg21
I495633
sg22
I0
sg23
I4
sg24
I378082
sg25
I314288
sg26
I1101393
sg27
F0.0
sg28
I117551
sg29
F0.12121212121212122
ssS'OVERDYKE JR JERE C'
p283
(dp284
g3
g5
sg4
g5
sg6
I18834
sg7
I00
sg8
g5
sg9
g32
sg10
I135836
sg11
S'jere.overdyke@enron.com'
p285
sg13
g5
sg14
g5
sg15
g32
sg16
g5
sg17
g5
sg18
I176
sg19
g5
sg20
g5
sg21
I7307594
sg22
g5
sg23
g5
sg24
I2041016
sg25
I94941
sg26
I249787
sg27
g32
sg28
I5266578
sg29
g32
ssS'PEREIRA PAULO V. FERRAZ'
p286
(dp287
g3
g5
sg4
g5
sg6
I27942
sg7
I00
sg8
I-101250
sg9
g32
sg10
g5
sg11
g5
sg13
g5
sg14
g5
sg15
g32
sg16
g5
sg17
g5
sg18
g5
sg19
I101250
sg20
g5
sg21
g5
sg22
g5
sg23
g5
sg24
g5
sg25
g5
sg26
I27942
sg27
g32
sg28
g5
sg29
g32
ssS'STABLER FRANK'
p288
(dp289
g3
g5
sg4
g5
sg6
I16514
sg7
I00
sg8
g5
sg9
F2.0876652387036434
sg10
g5
sg11
S'frank.stabler@enron.com'
p290
sg13
g5
sg14
g5
sg15
g32
sg16
g5
sg17
g5
sg18
I356071
sg19
g5
sg20
I500000
sg21
I511734
sg22
g5
sg23
g5
sg24
I511734
sg25
I239502
sg26
I1112087
sg27
g32
sg28
g5
sg29
g32
ssS'SKILLING JEFFREY K'
p291
(dp292
g3
I3627
sg4
g5
sg6
I29336
sg7
I01
sg8
g5
sg9
F5.03933380007163
sg10
I1920000
sg11
S'jeff.skilling@enron.com'
p293
sg13
g5
sg14
I2042
sg15
F0.2777777777777778
sg16
g5
sg17
I108
sg18
I22122
sg19
g5
sg20
I5600000
sg21
I26093672
sg22
I88
sg23
I30
sg24
I6843672
sg25
I1111258
sg26
I8682716
sg27
F0.0242624758753791
sg28
I19250000
sg29
F0.3020402536531569
ssS'BLAKE JR. NORMAN P'
p294
(dp295
g3
g5
sg4
g5
sg6
I1279
sg7
I00
sg8
I-113784
sg9
g32
sg10
g5
sg11
g5
sg13
g5
sg14
g5
sg15
g32
sg16
g5
sg17
g5
sg18
g5
sg19
I113784
sg20
g5
sg21
g5
sg22
g5
sg23
g5
sg24
g5
sg25
g5
sg26
I1279
sg27
g32
sg28
g5
sg29
g32
ssS'SHERRICK JEFFREY B'
p296
(dp297
g3
I613
sg4
g5
sg6
g5
sg7
I00
sg8
g5
sg9
g32
sg10
g5
sg11
S'jeffrey.sherrick@enron.com'
p298
sg13
g5
sg14
I583
sg15
F0.72
sg16
g5
sg17
I25
sg18
g5
sg19
g5
sg20
g5
sg21
I1832468
sg22
I39
sg23
I18
sg24
I405999
sg25
g5
sg26
g5
sg27
F0.0636215334420881
sg28
I1426469
sg29
F0.7836215334420881
ssS'PRENTICE JAMES'
p299
(dp300
g3
g5
sg4
I564348
sg6
g5
sg7
I00
sg8
g5
sg9
g32
sg10
g5
sg11
S'james.prentice@enron.com'
p301
sg13
g5
sg14
g5
sg15
g32
sg16
g5
sg17
g5
sg18
g5
sg19
g5
sg20
g5
sg21
I1095040
sg22
g5
sg23
g5
sg24
I208809
sg25
g5
sg26
I564348
sg27
g32
sg28
I886231
sg29
g32
ssS'GRAY RODNEY'
p302
(dp303
g3
g5
sg4
I93585
sg6
g5
sg7
I00
sg8
g5
sg9
g32
sg10
I365625
sg11
g5
sg13
g5
sg14
g5
sg15
g32
sg16
g5
sg17
g5
sg18
I680833
sg19
g5
sg20
g5
sg21
g5
sg22
g5
sg23
g5
sg24
g5
sg25
I6615
sg26
I1146658
sg27
g32
sg28
g5
sg29
g32
ssS'PICKERING MARK R'
p304
(dp305
g3
I898
sg4
g5
sg6
I31653
sg7
I00
sg8
g5
sg9
F0.45798939601885086
sg10
g5
sg11
S'mark.pickering@enron.com'
p306
sg13
g5
sg14
I728
sg15
F0.0
sg16
I400000
sg17
I67
sg18
g5
sg19
g5
sg20
I300000
sg21
I28798
sg22
I7
sg23
I0
sg24
g5
sg25
I655037
sg26
I1386690
sg27
F0.0077951002227171495
sg28
I28798
sg29
F0.0077951002227171495
ssS'NOLES JAMES L'
p307
(dp308
g3
g5
sg4
I774401
sg6
g5
sg7
I00
sg8
g5
sg9
g32
sg10
g5
sg11
g5
sg13
I-94556
sg14
g5
sg15
g32
sg16
g5
sg17
g5
sg18
g5
sg19
g5
sg20
g5
sg21
I368705
sg22
g5
sg23
g5
sg24
I463261
sg25
g5
sg26
I774401
sg27
g32
sg28
g5
sg29
g32
ssS'KEAN STEVEN J'
p309
(dp310
g3
I12754
sg4
g5
sg6
I41953
sg7
I00
sg8
g5
sg9
F2.473178380463869
sg10
I300000
sg11
S'steven.kean@enron.com'
p311
sg13
g5
sg14
I3639
sg15
F0.05725699067909454
sg16
g5
sg17
I6759
sg18
I1231
sg19
g5
sg20
I1000000
sg21
I6153642
sg22
I140
sg23
I387
sg24
I4131594
sg25
I404338
sg26
I1747522
sg27
F0.010976948408342482
sg28
I2022048
sg29
F0.06823393908743702
ssS'FOWLER PEGGY'
p312
(dp313
g3
I517
sg4
g5
sg6
g5
sg7
I00
sg8
g5
sg9
g32
sg10
g5
sg11
S'kulvinder.fowler@enron.com'
p314
sg13
g5
sg14
I10
sg15
F0.0
sg16
g5
sg17
I36
sg18
g5
sg19
g5
sg20
g5
sg21
I1884748
sg22
I0
sg23
I0
sg24
I560170
sg25
g5
sg26
g5
sg27
F0.0
sg28
I1324578
sg29
F0.0
ssS'WASAFF GEORGE'
p315
(dp316
g3
I400
sg4
I831299
sg6
g5
sg7
I00
sg8
I-583325
sg9
F1.2500192310650933
sg10
I200000
sg11
S'george.wasaff@enron.com'
p317
sg13
g5
sg14
I337
sg15
F0.23333333333333334
sg16
g5
sg17
I30
sg18
I1425
sg19
g5
sg20
I325000
sg21
I2056427
sg22
I22
sg23
I7
sg24
I388167
sg25
I259996
sg26
I1034395
sg27
F0.055
sg28
I1668260
sg29
F0.28833333333333333
ssS'WHITE JR THOMAS E'
p318
(dp319
g3
g5
sg4
g5
sg6
I81353
sg7
I00
sg8
g5
sg9
F1.417130908254945
sg10
g5
sg11
S'thomas.white@enron.com'
p320
sg13
g5
sg14
g5
sg15
g32
sg16
g5
sg17
g5
sg18
I1085463
sg19
g5
sg20
I450000
sg21
I15144123
sg22
g5
sg23
g5
sg24
I13847074
sg25
I317543
sg26
I1934359
sg27
g32
sg28
I1297049
sg29
g32
ssS'CHRISTODOULOU DIOMEDES'
p321
(dp322
g3
g5
sg4
g5
sg6
g5
sg7
I00
sg8
g5
sg9
g32
sg10
g5
sg11
S'diomedes.christodoulou@enron.com'
p323
sg13
g5
sg14
g5
sg15
g32
sg16
g5
sg17
g5
sg18
g5
sg19
g5
sg20
g5
sg21
I6077885
sg22
g5
sg23
g5
sg24
I950730
sg25
g5
sg26
g5
sg27
g32
sg28
I5127155
sg29
g32
ssS'ALLEN PHILLIP K'
p324
(dp325
g3
I2902
sg4
I2869717
sg6
I13868
sg7
I00
sg8
I-3081055
sg9
F20.672922185635414
sg10
I304805
sg11
S'phillip.allen@enron.com'
p326
sg13
I-126027
sg14
I1407
sg15
F0.029612756264236904
sg16
g5
sg17
I2195
sg18
I152
sg19
g5
sg20
I4175000
sg21
I1729541
sg22
I47
sg23
I65
sg24
I126027
sg25
I201955
sg26
I4484442
sg27
F0.016195727084769126
sg28
I1729541
sg29
F0.04580848334900603
ssS'SHARP VICTORIA T'
p327
(dp328
g3
I3136
sg4
I187469
sg6
I116337
sg7
I00
sg8
g5
sg9
F2.417931379107461
sg10
I422158
sg11
S'vicki.sharp@enron.com'
p329
sg13
g5
sg14
I2477
sg15
F0.04411764705882353
sg16
g5
sg17
I136
sg18
I2401
sg19
g5
sg20
I600000
sg21
I494136
sg22
I24
sg23
I6
sg24
I213063
sg25
I248146
sg26
I1576511
sg27
F0.007653061224489796
sg28
I281073
sg29
F0.05177070828331333
ssS'JAEDICKE ROBERT'
p330
(dp331
g3
g5
sg4
g5
sg6
g5
sg7
I00
sg8
I-25000
sg9
g32
sg10
g5
sg11
g5
sg13
I-44093
sg14
g5
sg15
g32
sg16
g5
sg17
g5
sg18
g5
sg19
I108750
sg20
g5
sg21
I431750
sg22
g5
sg23
g5
sg24
I44093
sg25
g5
sg26
I83750
sg27
g32
sg28
I431750
sg29
g32
ssS'WINOKUR JR. HERBERT S'
p332
(dp333
g3
g5
sg4
g5
sg6
I1413
sg7
I00
sg8
I-25000
sg9
g32
sg10
g5
sg11
g5
sg13
g5
sg14
g5
sg15
g32
sg16
g5
sg17
g5
sg18
g5
sg19
I108579
sg20
g5
sg21
g5
sg22
g5
sg23
g5
sg24
g5
sg25
g5
sg26
I84992
sg27
g32
sg28
g5
sg29
g32
ssS'BROWN MICHAEL'
p334
(dp335
g3
I1486
sg4
g5
sg6
I49288
sg7
I00
sg8
g5
sg9
g32
sg10
g5
sg11
S'michael.brown@enron.com'
p336
sg13
g5
sg14
I761
sg15
F0.024390243902439025
sg16
g5
sg17
I41
sg18
g5
sg19
g5
sg20
g5
sg21
g5
sg22
I13
sg23
I1
sg24
g5
sg25
g5
sg26
I49288
sg27
F0.008748317631224764
sg28
g5
sg29
F0.03313856153366379
ssS'BADUM JAMES P'
p337
(dp338
g3
g5
sg4
I178980
sg6
I3486
sg7
I00
sg8
g5
sg9
g32
sg10
g5
sg11
g5
sg13
g5
sg14
g5
sg15
g32
sg16
g5
sg17
g5
sg18
g5
sg19
g5
sg20
g5
sg21
I257817
sg22
g5
sg23
g5
sg24
g5
sg25
g5
sg26
I182466
sg27
g32
sg28
I257817
sg29
g32
ssS'HUGHES JAMES A'
p339
(dp340
g3
I719
sg4
g5
sg6
g5
sg7
I00
sg8
g5
sg9
g32
sg10
g5
sg11
S'james.hughes@enron.com'
p341
sg13
g5
sg14
I589
sg15
F0.14705882352941177
sg16
g5
sg17
I34
sg18
g5
sg19
g5
sg20
g5
sg21
I1118394
sg22
I35
sg23
I5
sg24
I363428
sg25
g5
sg26
g5
sg27
F0.048678720445062586
sg28
I754966
sg29
F0.19573754397447435
ssS'REYNOLDS LAWRENCE'
p342
(dp343
g3
g5
sg4
I51365
sg6
I8409
sg7
I00
sg8
I-200000
sg9
F1.3089176559902616
sg10
I156250
sg11
g5
sg13
I-140264
sg14
g5
sg15
g32
sg16
g5
sg17
g5
sg18
I202052
sg19
g5
sg20
I100000
sg21
I4221891
sg22
g5
sg23
g5
sg24
I201483
sg25
I76399
sg26
I394475
sg27
g32
sg28
I4160672
sg29
g32
ssS'DIMICHELE RICHARD G'
p344
(dp345
g3
g5
sg4
g5
sg6
I35812
sg7
I00
sg8
g5
sg9
F3.8053487982708494
sg10
I694862
sg11
S'richard.dimichele@enron.com'
p346
sg13
g5
sg14
g5
sg15
g32
sg16
g5
sg17
g5
sg18
I374689
sg19
g5
sg20
I1000000
sg21
I8317782
sg22
g5
sg23
g5
sg24
I126027
sg25
I262788
sg26
I2368151
sg27
g32
sg28
I8191755
sg29
g32
ssS'BHATNAGAR SANJAY'
p347
(dp348
g3
I523
sg4
g5
sg6
g5
sg7
I00
sg8
g5
sg9
g32
sg10
g5
sg11
S'sanjay.bhatnagar@enron.com'
p349
sg13
I15456290
sg14
I463
sg15
F0.034482758620689655
sg16
g5
sg17
I29
sg18
I137864
sg19
I137864
sg20
g5
sS'total_stock_value'
p350
S'NaN'
p351
sg22
I0
sg23
I1
sg24
I-2604490
sg25
g5
sg26
I15456290
sg27
F0.0
sg28
I2604490
sg29
F0.034482758620689655
ssS'CARTER REBECCA C'
p352
(dp353
g3
I312
sg4
g5
sg6
g5
sg7
I00
sg8
I-159792
sg9
F1.14587351848103
sg10
I75000
sg11
S'rebecca.carter@enron.com'
p354
sg13
I-307301
sg14
I196
sg15
F0.4666666666666667
sg16
g5
sg17
I15
sg18
I540
sg19
g5
sg20
I300000
sg21
g5
sg22
I29
sg23
I7
sg24
I307301
sg25
I261809
sg26
I477557
sg27
F0.09294871794871795
sg28
g5
sg29
F0.5596153846153846
ssS'BUCHANAN HAROLD G'
p355
(dp356
g3
I1088
sg4
g5
sg6
I600
sg7
I00
sg8
g5
sg9
F2.015990839337626
sg10
I304805
sg11
S'john.buchanan@enron.com'
p357
sg13
g5
sg14
I23
sg15
F0.0
sg16
g5
sg17
I125
sg18
I1215
sg19
g5
sg20
I500000
sg21
I1014505
sg22
I0
sg23
I0
sg24
I189041
sg25
I248017
sg26
I1054637
sg27
F0.0
sg28
I825464
sg29
F0.0
ssS'YEAP SOON'
p358
(dp359
g3
g5
sg4
g5
sg6
I55097
sg7
I00
sg8
g5
sg9
g32
sg10
g5
sg11
g5
sg13
g5
sg14
g5
sg15
g32
sg16
g5
sg17
g5
sg18
g5
sg19
g5
sg20
g5
sg21
I192758
sg22
g5
sg23
g5
sg24
g5
sg25
g5
sg26
I55097
sg27
g32
sg28
I192758
sg29
g32
ssS'MURRAY JULIA H'
p360
(dp361
g3
I2192
sg4
g5
sg6
I57580
sg7
I00
sg8
g5
sg9
F1.744561330053558
sg10
I125000
sg11
S'julia.murray@enron.com'
p362
sg13
g5
sg14
I395
sg15
F0.044444444444444446
sg16
g5
sg17
I45
sg18
I330
sg19
g5
sg20
I400000
sg21
I597461
sg22
I11
sg23
I2
sg24
I196983
sg25
I229284
sg26
I812194
sg27
F0.005018248175182482
sg28
I400478
sg29
F0.04946269261962693
ssS'GARLAND C KEVIN'
p363
(dp364
g3
I209
sg4
g5
sg6
I48405
sg7
I00
sg8
g5
sg9
F3.6646460814155017
sg10
I375304
sg11
S'kevin.garland@enron.com'
p365
sg13
g5
sg14
I178
sg15
F0.6136363636363636
sg16
g5
sg17
I44
sg18
I60814
sg19
g5
sg20
I850000
sg21
I896153
sg22
I10
sg23
I27
sg24
I259907
sg25
I231946
sg26
I1566469
sg27
F0.04784688995215311
sg28
I636246
sg29
F0.6614832535885168
ssS'DODSON KEITH'
p366
(dp367
g3
I176
sg4
g5
sg6
I28164
sg7
I00
sg8
g5
sg9
F0.3167377818400655
sg10
g5
sg11
S'keith.dodson@enron.com'
p368
sg13
g5
sg14
I114
sg15
F0.21428571428571427
sg16
g5
sg17
I14
sg18
I774
sg19
g5
sg20
I70000
sg21
g5
sg22
I10
sg23
I3
sg24
g5
sg25
I221003
sg26
I319941
sg27
F0.056818181818181816
sg28
g5
sg29
F0.27110389610389607
ssS'YEAGER F SCOTT'
p369
(dp370
g3
g5
sg4
g5
sg6
I53947
sg7
I01
sg8
g5
sg9
g32
sg10
g5
sg11
S'scott.yeager@enron.com'
p371
sg13
g5
sg14
g5
sg15
g32
sg16
g5
sg17
g5
sg18
I147950
sg19
g5
sg20
g5
sg21
I11884758
sg22
g5
sg23
g5
sg24
I3576206
sg25
I158403
sg26
I360300
sg27
g32
sg28
I8308552
sg29
g32
ssS'HIRKO JOSEPH'
p372
(dp373
g3
g5
sg4
I10259
sg6
I77978
sg7
I01
sg8
g5
sg9
g32
sg10
g5
sg11
S'joe.hirko@enron.com'
p374
sg13
g5
sg14
g5
sg15
g32
sg16
g5
sg17
g5
sg18
I2856
sg19
g5
sg20
g5
sg21
I30766064
sg22
g5
sg23
g5
sg24
g5
sg25
g5
sg26
I91093
sg27
g32
sg28
I30766064
sg29
g32
ssS'DIETRICH JANET R'
p375
(dp376
g3
I2572
sg4
g5
sg6
I3475
sg7
I00
sg8
g5
sg9
F2.3990403838464616
sg10
I556416
sg11
S'janet.dietrich@enron.com'
p377
sg13
g5
sg14
I1902
sg15
F0.2222222222222222
sg16
g5
sg17
I63
sg18
I473
sg19
g5
sg20
I600000
sg21
I1865087
sg22
I305
sg23
I14
sg24
I315068
sg25
I250100
sg26
I1410464
sg27
F0.11858475894245724
sg28
I1550019
sg29
F0.34080698116467945
ssS'DERRICK JR. JAMES V'
p378
(dp379
g3
I2181
sg4
g5
sg6
I51124
sg7
I00
sg8
I-1284000
sg9
F1.6247778624016247
sg10
I484000
sg11
S'james.derrick@enron.com'
p380
sg13
I-1787380
sg14
I1401
sg15
F0.022002200220022004
sg16
g5
sg17
I909
sg18
I7482
sg19
g5
sg20
I800000
sg21
I8831913
sg22
I64
sg23
I20
sg24
I1787380
sg25
I492375
sg26
I550981
sg27
F0.029344337459880788
sg28
I8831913
sg29
F0.05134653767990279
ssS'FREVERT MARK A'
p381
(dp382
g3
I3275
sg4
I6426990
sg6
I86987
sg7
I00
sg8
I-3367011
sg9
F1.885134956811558
sg10
I1617011
sg11
S'mark.frevert@enron.com'
p383
sg13
g5
sg14
I2979
sg15
F0.2857142857142857
sg16
I2000000
sg17
I21
sg18
I7427621
sg19
g5
sg20
I2000000
sg21
I14622185
sg22
I242
sg23
I6
sg24
I4188667
sg25
I1060932
sg26
I17252530
sg27
F0.07389312977099237
sg28
I10433518
sg29
F0.3596074154852781
ssS'PAI LOU L'
p384
(dp385
g3
g5
sg4
g5
sg6
I32047
sg7
I00
sg8
g5
sg9
F3.8185574253758414
sg10
g5
sg11
S'lou.pai@enron.com'
p386
sg13
g5
sg14
g5
sg15
g32
sg16
g5
sg17
g5
sg18
I1829457
sg19
g5
sg20
I1000000
sg21
I23817930
sg22
g5
sg23
g5
sg24
I8453763
sg25
I261879
sg26
I3123383
sg27
g32
sg28
I15364167
sg29
g32
ssS'BAY FRANKLIN R'
p387
(dp388
g3
g5
sg4
I260455
sg6
I129142
sg7
I00
sg8
I-201641
sg9
F1.6689545251615756
sg10
g5
sg11
S'frank.bay@enron.com'
p389
sg13
I-82782
sg14
g5
sg15
g32
sg16
g5
sg17
g5
sg18
I69
sg19
g5
sg20
I400000
sg21
I63014
sg22
g5
sg23
g5
sg24
I145796
sg25
I239671
sg26
I827696
sg27
g32
sg28
g5
sg29
g32
ssS'HAYSLETT RODERICK J'
p390
(dp391
g3
I2649
sg4
g5
sg6
g5
sg7
I00
sg8
g5
sg9
g32
sg10
g5
sg11
S'rod.hayslett@enron.com'
p392
sg13
g5
sg14
I571
sg15
F0.03581526861451461
sg16
g5
sg17
I1061
sg18
g5
sg19
g5
sg20
g5
sg21
I346663
sg22
I35
sg23
I38
sg24
I346663
sg25
g5
sg26
g5
sg27
F0.01321253303133258
sg28
g5
sg29
F0.04902780164584719
ssS'FUGH JOHN L'
p393
(dp394
g3
g5
sg4
I50591
sg6
g5
sg7
I00
sg8
g5
sg9
g32
sg10
g5
sg11
g5
sg13
g5
sg14
g5
sg15
g32
sg16
g5
sg17
g5
sg18
g5
sg19
g5
sg20
g5
sg21
I176378
sg22
g5
sg23
g5
sg24
g5
sg25
g5
sg26
I50591
sg27
g32
sg28
I176378
sg29
g32
ssS'FALLON JAMES B'
p395
(dp396
g3
I1755
sg4
g5
sg6
I95924
sg7
I00
sg8
g5
sg9
F8.207808580771403
sg10
I374347
sg11
S'jim.fallon@enron.com'
p397
sg13
g5
sg14
I1604
sg15
F0.49333333333333335
sg16
g5
sg17
I75
sg18
I401481
sg19
g5
sg20
I2500000
sg21
I2332399
sg22
I42
sg23
I37
sg24
I1392142
sg25
I304588
sg26
I3676340
sg27
F0.023931623931623933
sg28
I940257
sg29
F0.5172649572649572
ssS'KOENIG MARK E'
p398
(dp399
g3
I2374
sg4
g5
sg6
I127017
sg7
I01
sg8
g5
sg9
F2.2584579249288588
sg10
I300000
sg11
S'mark.koenig@enron.com'
p400
sg13
g5
sg14
I2271
sg15
F0.2459016393442623
sg16
g5
sg17
I61
sg18
I150458
sg19
g5
sg20
I700000
sg21
I1920055
sg22
I53
sg23
I15
sg24
I1248318
sg25
I309946
sg26
I1587421
sg27
F0.02232518955349621
sg28
I671737
sg29
F0.2682268288977585
ssS'SAVAGE FRANK'
p401
(dp402
g3
g5
sg4
g5
sg6
g5
sg7
I00
sg8
I-121284
sg9
g32
sg10
g5
sg11
g5
sg13
g5
sg14
g5
sg15
g32
sg16
g5
sg17
g5
sg18
g5
sg19
I125034
sg20
g5
sg21
g5
sg22
g5
sg23
g5
sg24
g5
sg25
g5
sg26
I3750
sg27
g32
sg28
g5
sg29
g32
ssS'IZZO LAWRENCE L'
p403
(dp404
g3
I496
sg4
g5
sg6
I28093
sg7
I00
sg8
g5
sg9
g32
sg10
I312500
sg11
S'larry.izzo@enron.com'
p405
sg13
g5
sg14
I437
sg15
F0.2631578947368421
sg16
g5
sg17
I19
sg18
I1553729
sg19
g5
sg20
g5
sg21
I5819980
sg22
I28
sg23
I5
sg24
I3654808
sg25
I85274
sg26
I1979596
sg27
F0.056451612903225805
sg28
I2165172
sg29
F0.3196095076400679
ssS'TILNEY ELIZABETH A'
p406
(dp407
g3
I460
sg4
g5
sg6
g5
sg7
I00
sg8
I-575000
sg9
F1.2129151201998885
sg10
I275000
sg11
S'elizabeth.tilney@enron.com'
p408
sg13
g5
sg14
I379
sg15
F0.5789473684210527
sg16
g5
sg17
I19
sg18
I152055
sg19
g5
sg20
I300000
sg21
I1168042
sg22
I10
sg23
I11
sg24
I576792
sg25
I247338
sg26
I399393
sg27
F0.021739130434782608
sg28
I591250
sg29
F0.6006864988558352
ssS'MARTIN AMANDA K'
p409
(dp410
g3
I1522
sg4
I85430
sg6
I8211
sg7
I00
sg8
g5
sg9
g32
sg10
I5145434
sg11
S'a..martin@enron.com'
p411
sg13
g5
sg14
I477
sg15
F0.0
sg16
g5
sg17
I230
sg18
I2818454
sg19
g5
sg20
g5
sg21
I2070306
sg22
I8
sg23
I0
sg24
g5
sg25
I349487
sg26
I8407016
sg27
F0.005256241787122208
sg28
I2070306
sg29
F0.005256241787122208
ssS'BUY RICHARD B'
p412
(dp413
g3
I3523
sg4
I649584
sg6
g5
sg7
I00
sg8
I-694862
sg9
F2.722767784211577
sg10
I769862
sg11
S'rick.buy@enron.com'
p414
sg13
g5
sg14
I2333
sg15
F0.06742640075973409
sg16
g5
sg17
I1053
sg18
I400572
sg19
g5
sg20
I900000
sg21
I3444470
sg22
I156
sg23
I71
sg24
I901657
sg25
I330546
sg26
I2355702
sg27
F0.04428044280442804
sg28
I2542813
sg29
F0.11170684356416213
ssS'GRAMM WENDY L'
p415
(dp416
g3
g5
sg4
g5
sg6
g5
sg7
I00
sg8
g5
sg9
g32
sg10
g5
sg11
g5
sg13
g5
sg14
g5
sg15
g32
sg16
g5
sg17
g5
sg18
g5
sg19
I119292
sg20
g5
sg21
g5
sg22
g5
sg23
g5
sg24
g5
sg25
g5
sg26
I119292
sg27
g32
sg28
g5
sg29
g32
ssS'CAUSEY RICHARD A'
p417
(dp418
g3
I1892
sg4
g5
sg6
I30674
sg7
I01
sg8
I-235000
sg9
F2.4085416521150607
sg10
I350000
sg11
S'richard.causey@enron.com'
p419
sg13
g5
sg14
I1585
sg15
F0.24489795918367346
sg16
g5
sg17
I49
sg18
I307895
sg19
g5
sg20
I1000000
sg21
I2502063
sg22
I58
sg23
I12
sg24
I2502063
sg25
I415189
sg26
I1868758
sg27
F0.0306553911205074
sg28
g5
sg29
F0.2755533503041809
ssS'TAYLOR MITCHELL S'
p420
(dp421
g3
I533
sg4
I227449
sg6
g5
sg7
I00
sg8
g5
sg9
F2.2623240100447184
sg10
g5
sg11
S'mitchell.taylor@enron.com'
p422
sg13
g5
sg14
I300
sg15
F0.0
sg16
g5
sg17
I29
sg18
g5
sg19
g5
sg20
I600000
sg21
I3745048
sg22
I0
sg23
I0
sg24
I563798
sg25
I265214
sg26
I1092663
sg27
F0.0
sg28
I3181250
sg29
F0.0
ssS'DONAHUE JR JEFFREY M'
p423
(dp424
g3
I865
sg4
g5
sg6
I96268
sg7
I00
sg8
I-300000
sg9
F2.8714900520816506
sg10
g5
sg11
S'jeff.donahue@enron.com'
p425
sg13
g5
sg14
I772
sg15
F0.5
sg16
g5
sg17
I22
sg18
I891
sg19
g5
sg20
I800000
sg21
I1080988
sg22
I188
sg23
I11
sg24
I315068
sg25
I278601
sg26
I875760
sg27
F0.21734104046242775
sg28
I765920
sg29
F0.7173410404624277
ssS'GLISAN JR BEN F'
p426
(dp427
g3
I873
sg4
g5
sg6
I125978
sg7
I01
sg8
g5
sg9
F2.1820165469588146
sg10
I71023
sg11
S'ben.glisan@enron.com'
p428
sg13
g5
sg14
I874
sg15
F0.375
sg16
g5
sg17
I16
sg18
I200308
sg19
g5
sg20
I600000
sg21
I778546
sg22
I52
sg23
I6
sg24
I393818
sg25
I274975
sg26
I1272284
sg27
F0.05956471935853379
sg28
I384728
sg29
F0.4345647193585338
ss.